target datalayout = "e-m:e-p270:32:32-p271:32:32-p272:64:64-i64:64-i128:128-f80:128-n8:16:32:64-S128"
target triple = "x86_64-pc-linux-gnu"

%class.RegMask = type { %union.anon, i32, i32 }
%union.anon = type { [11 x i64] }
%class.MultiNode.base = type { %class.Node.base }
%class.Node.base = type <{ ptr, ptr, ptr, i32, i32, i32, i32, i32, i32, i32 }>
%class.ProjNode = type <{ %class.Node.base, i32, i8, [7 x i8] }>
%class.Node = type <{ ptr, ptr, ptr, i32, i32, i32, i32, i32, i32, i32, [4 x i8] }>
%class.ReplacedNodes = type { ptr }
%class.CallNode = type { %class.SafePointNode.base, ptr, ptr, float, ptr, ptr }
%class.SafePointNode.base = type <{ %class.MultiNode.base, [4 x i8], ptr, ptr, %class.ReplacedNodes, i8 }>
%class.BarrierSet = type { ptr, %class.FakeRttiSupport, ptr, ptr, ptr, ptr, ptr }
%class.FakeRttiSupport = type <{ i64, i32, [4 x i8] }>
%class.BoxLockNode = type <{ %class.Node.base, i32, %class.RegMask, i32, [4 x i8] }>
%class.AbstractLockNode = type <{ %class.CallNode, i32, [4 x i8] }>

@_ZN10BarrierSet12_barrier_setE = external global ptr, align 8

; Function Attrs: mustprogress nounwind uwtable
define linkonce_odr hidden noundef ptr @_ZNK4Node10as_BoxLockEv(ptr noundef nonnull align 8 dereferenceable(52) %0) #1 comdat align 2 {
  %2 = alloca ptr, align 8
  store ptr %0, ptr %2, align 8
  %3 = load ptr, ptr %2, align 8
  ret ptr %3
}

; Function Attrs: mustprogress nounwind uwtable
define linkonce_odr hidden noundef zeroext i1 @_ZNK16AbstractLockNode13is_eliminatedEv(ptr noundef nonnull align 8 dereferenceable(132) %0) #1 comdat align 2 {
  %2 = alloca ptr, align 8
  store ptr %0, ptr %2, align 8
  %3 = load ptr, ptr %2, align 8
  %4 = getelementptr inbounds %class.AbstractLockNode, ptr %3, i32 0, i32 1
  %5 = load i32, ptr %4, align 8
  %6 = icmp ne i32 %5, 0
  ret i1 %6
}

; Function Attrs: mustprogress nounwind uwtable
define linkonce_odr hidden noundef zeroext i1 @_ZN11BoxLockNode9same_slotEP4NodeS1_(ptr noundef %0, ptr noundef %1) #1 comdat align 2 {
  %3 = alloca ptr, align 8
  %4 = alloca ptr, align 8
  store ptr %0, ptr %3, align 8
  store ptr %1, ptr %4, align 8
  %5 = load ptr, ptr %3, align 8
  %6 = call noundef ptr @_ZNK4Node10as_BoxLockEv(ptr noundef nonnull align 8 dereferenceable(52) %5)
  %7 = getelementptr inbounds %class.BoxLockNode, ptr %6, i32 0, i32 1
  %8 = load i32, ptr %7, align 4
  %9 = load ptr, ptr %4, align 8
  %10 = call noundef ptr @_ZNK4Node10as_BoxLockEv(ptr noundef nonnull align 8 dereferenceable(52) %9)
  %11 = getelementptr inbounds %class.BoxLockNode, ptr %10, i32 0, i32 1
  %12 = load i32, ptr %11, align 4
  %13 = icmp eq i32 %8, %12
  ret i1 %13
}

; Function Attrs: mustprogress nounwind uwtable
define linkonce_odr hidden noundef ptr @_ZNK16AbstractLockNode8box_nodeEv(ptr noundef nonnull align 8 dereferenceable(132) %0) #1 comdat align 2 {
  %2 = alloca ptr, align 8
  store ptr %0, ptr %2, align 8
  %3 = load ptr, ptr %2, align 8
  %4 = call noundef ptr @_ZNK4Node2inEj(ptr noundef nonnull align 8 dereferenceable(52) %3, i32 noundef 6)
  ret ptr %4
}

; Function Attrs: mustprogress nounwind uwtable
define linkonce_odr hidden noundef zeroext i1 @_ZNK4Node10eqv_uncastEPKS_b(ptr noundef nonnull align 8 dereferenceable(52) %0, ptr noundef %1, i1 noundef zeroext %2) #1 comdat align 2 {
  %4 = alloca ptr, align 8
  %5 = alloca ptr, align 8
  %6 = alloca i8, align 1
  store ptr %0, ptr %4, align 8
  store ptr %1, ptr %5, align 8
  %7 = zext i1 %2 to i8
  store i8 %7, ptr %6, align 1
  %8 = load ptr, ptr %4, align 8
  %9 = load i8, ptr %6, align 1
  %10 = trunc i8 %9 to i1
  %11 = call noundef ptr @_ZNK4Node6uncastEb(ptr noundef nonnull align 8 dereferenceable(52) %8, i1 noundef zeroext %10)
  %12 = load ptr, ptr %5, align 8
  %13 = load i8, ptr %6, align 1
  %14 = trunc i8 %13 to i1
  %15 = call noundef ptr @_ZNK4Node6uncastEb(ptr noundef nonnull align 8 dereferenceable(52) %12, i1 noundef zeroext %14)
  %16 = icmp eq ptr %11, %15
  ret i1 %16
}

; Function Attrs: mustprogress nounwind uwtable
define linkonce_odr hidden noundef ptr @_ZNK16AbstractLockNode8obj_nodeEv(ptr noundef nonnull align 8 dereferenceable(132) %0) #1 comdat align 2 {
  %2 = alloca ptr, align 8
  store ptr %0, ptr %2, align 8
  %3 = load ptr, ptr %2, align 8
  %4 = call noundef ptr @_ZNK4Node2inEj(ptr noundef nonnull align 8 dereferenceable(52) %3, i32 noundef 5)
  ret ptr %4
}

; Function Attrs: mustprogress nounwind uwtable
define linkonce_odr hidden noundef ptr @_ZN10BarrierSet14barrier_set_c2Ev(ptr noundef nonnull align 8 dereferenceable(64) %0) #1 comdat align 2 {
  %2 = alloca ptr, align 8
  store ptr %0, ptr %2, align 8
  %3 = load ptr, ptr %2, align 8
  %4 = getelementptr inbounds %class.BarrierSet, ptr %3, i32 0, i32 4
  %5 = load ptr, ptr %4, align 8
  ret ptr %5
}

; Function Attrs: mustprogress nounwind uwtable
define linkonce_odr hidden noundef ptr @_ZN10BarrierSet11barrier_setEv() #1 comdat align 2 {
  %1 = load ptr, ptr @_ZN10BarrierSet12_barrier_setE, align 8
  ret ptr %1
}

; Function Attrs: mustprogress nounwind uwtable
define linkonce_odr hidden noundef ptr @_ZNK4Node9as_UnlockEv(ptr noundef nonnull align 8 dereferenceable(52) %0) #1 comdat align 2 {
  %2 = alloca ptr, align 8
  store ptr %0, ptr %2, align 8
  %3 = load ptr, ptr %2, align 8
  ret ptr %3
}

; Function Attrs: mustprogress nounwind uwtable
define linkonce_odr hidden noundef zeroext i1 @_ZNK4Node9is_UnlockEv(ptr noundef nonnull align 8 dereferenceable(52) %0) #1 comdat align 2 {
  %2 = alloca ptr, align 8
  store ptr %0, ptr %2, align 8
  %3 = load ptr, ptr %2, align 8
  %4 = getelementptr inbounds %class.Node, ptr %3, i32 0, i32 8
  %5 = load i32, ptr %4, align 4
  %6 = and i32 %5, 511
  %7 = icmp eq i32 %6, 327
  ret i1 %7
}

; Function Attrs: mustprogress nounwind uwtable
define linkonce_odr hidden noundef ptr @_ZNK4Node2inEj(ptr noundef nonnull align 8 dereferenceable(52) %0, i32 noundef %1) #1 comdat align 2 {
  %3 = alloca ptr, align 8
  %4 = alloca i32, align 4
  store ptr %0, ptr %3, align 8
  store i32 %1, ptr %4, align 4
  %5 = load ptr, ptr %3, align 8
  %6 = getelementptr inbounds %class.Node, ptr %5, i32 0, i32 1
  %7 = load ptr, ptr %6, align 8
  %8 = load i32, ptr %4, align 4
  %9 = zext i32 %8 to i64
  %10 = getelementptr inbounds ptr, ptr %7, i64 %9
  %11 = load ptr, ptr %10, align 8
  ret ptr %11
}

; Function Attrs: mustprogress nounwind uwtable
define linkonce_odr hidden noundef ptr @_ZNK4Node7as_ProjEv(ptr noundef nonnull align 8 dereferenceable(52) %0) #1 comdat align 2 {
  %2 = alloca ptr, align 8
  store ptr %0, ptr %2, align 8
  %3 = load ptr, ptr %2, align 8
  ret ptr %3
}

; Function Attrs: mustprogress nounwind uwtable
define linkonce_odr hidden noundef zeroext i1 @_ZNK4Node7is_ProjEv(ptr noundef nonnull align 8 dereferenceable(52) %0) #1 comdat align 2 {
  %2 = alloca ptr, align 8
  store ptr %0, ptr %2, align 8
  %3 = load ptr, ptr %2, align 8
  %4 = getelementptr inbounds %class.Node, ptr %3, i32 0, i32 8
  %5 = load i32, ptr %4, align 4
  %6 = and i32 %5, 15
  %7 = icmp eq i32 %6, 8
  ret i1 %7
}

; Function Attrs: mustprogress nounwind uwtable
define hidden noundef zeroext i1 @_ZN16AbstractLockNode20find_matching_unlockEPK4NodeP8LockNodeR13GrowableArrayIPS_E(ptr noundef nonnull align 8 dereferenceable(132) %0, ptr noundef %1, ptr noundef %2, ptr noundef nonnull align 8 dereferenceable(24) %3) #1 align 2 {
  %5 = alloca i1, align 1
  %6 = alloca ptr, align 8
  %7 = alloca ptr, align 8
  %8 = alloca ptr, align 8
  %9 = alloca ptr, align 8
  %10 = alloca ptr, align 8
  %11 = alloca ptr, align 8
  %12 = alloca ptr, align 8
  %13 = alloca ptr, align 8
  %14 = alloca ptr, align 8
  %15 = alloca ptr, align 8
  %16 = alloca ptr, align 8
  store ptr %0, ptr %6, align 8
  store ptr %1, ptr %7, align 8
  store ptr %2, ptr %8, align 8
  store ptr %3, ptr %9, align 8
  %17 = load ptr, ptr %7, align 8
  %18 = call noundef zeroext i1 @_ZNK4Node7is_ProjEv(ptr noundef nonnull align 8 dereferenceable(52) %17)
  br i1 %18, label %19, label %22

19:                                               ; preds = %4
  %20 = load ptr, ptr %7, align 8
  %21 = call noundef ptr @_ZNK4Node7as_ProjEv(ptr noundef nonnull align 8 dereferenceable(52) %20)
  br label %23

22:                                               ; preds = %4
  br label %23

23:                                               ; preds = %22, %19
  %24 = phi ptr [ %21, %19 ], [ null, %22 ]
  store ptr %24, ptr %10, align 8
  %25 = load ptr, ptr %10, align 8
  %26 = icmp ne ptr %25, null
  br i1 %26, label %27, label %77

27:                                               ; preds = %23
  %28 = load ptr, ptr %10, align 8
  %29 = getelementptr inbounds %class.ProjNode, ptr %28, i32 0, i32 1
  %30 = load i32, ptr %29, align 4
  %31 = icmp eq i32 %30, 0
  br i1 %31, label %32, label %77

32:                                               ; preds = %27
  %33 = load ptr, ptr %10, align 8
  %34 = call noundef ptr @_ZNK4Node2inEj(ptr noundef nonnull align 8 dereferenceable(52) %33, i32 noundef 0)
  store ptr %34, ptr %11, align 8
  %35 = load ptr, ptr %11, align 8
  %36 = icmp ne ptr %35, null
  br i1 %36, label %37, label %76

37:                                               ; preds = %32
  %38 = load ptr, ptr %11, align 8
  %39 = call noundef zeroext i1 @_ZNK4Node9is_UnlockEv(ptr noundef nonnull align 8 dereferenceable(52) %38)
  br i1 %39, label %40, label %76

40:                                               ; preds = %37
  %41 = load ptr, ptr %11, align 8
  %42 = call noundef ptr @_ZNK4Node9as_UnlockEv(ptr noundef nonnull align 8 dereferenceable(52) %41)
  store ptr %42, ptr %12, align 8
  %43 = call noundef ptr @_ZN10BarrierSet11barrier_setEv()
  %44 = call noundef ptr @_ZN10BarrierSet14barrier_set_c2Ev(ptr noundef nonnull align 8 dereferenceable(64) %43)
  store ptr %44, ptr %13, align 8
  %45 = load ptr, ptr %13, align 8
  %46 = load ptr, ptr %8, align 8
  %47 = call noundef ptr @_ZNK16AbstractLockNode8obj_nodeEv(ptr noundef nonnull align 8 dereferenceable(132) %46)
  %48 = load ptr, ptr %45, align 8
  %49 = getelementptr inbounds ptr, ptr %48, i64 21
  %50 = load ptr, ptr %49, align 8
  %51 = call noundef ptr %50(ptr noundef nonnull align 8 dereferenceable(8) %45, ptr noundef %47)
  store ptr %51, ptr %14, align 8
  %52 = load ptr, ptr %13, align 8
  %53 = load ptr, ptr %12, align 8
  %54 = call noundef ptr @_ZNK16AbstractLockNode8obj_nodeEv(ptr noundef nonnull align 8 dereferenceable(132) %53)
  %55 = load ptr, ptr %52, align 8
  %56 = getelementptr inbounds ptr, ptr %55, i64 21
  %57 = load ptr, ptr %56, align 8
  %58 = call noundef ptr %57(ptr noundef nonnull align 8 dereferenceable(8) %52, ptr noundef %54)
  store ptr %58, ptr %15, align 8
  %59 = load ptr, ptr %14, align 8
  %60 = load ptr, ptr %15, align 8
  %61 = call noundef zeroext i1 @_ZNK4Node10eqv_uncastEPKS_b(ptr noundef nonnull align 8 dereferenceable(52) %59, ptr noundef %60, i1 noundef zeroext false)
  br i1 %61, label %62, label %75

62:                                               ; preds = %40
  %63 = load ptr, ptr %8, align 8
  %64 = call noundef ptr @_ZNK16AbstractLockNode8box_nodeEv(ptr noundef nonnull align 8 dereferenceable(132) %63)
  %65 = load ptr, ptr %12, align 8
  %66 = call noundef ptr @_ZNK16AbstractLockNode8box_nodeEv(ptr noundef nonnull align 8 dereferenceable(132) %65)
  %67 = call noundef zeroext i1 @_ZN11BoxLockNode9same_slotEP4NodeS1_(ptr noundef %64, ptr noundef %66)
  br i1 %67, label %68, label %75

68:                                               ; preds = %62
  %69 = load ptr, ptr %12, align 8
  %70 = call noundef zeroext i1 @_ZNK16AbstractLockNode13is_eliminatedEv(ptr noundef nonnull align 8 dereferenceable(132) %69)
  br i1 %70, label %75, label %71

71:                                               ; preds = %68
  %72 = load ptr, ptr %9, align 8
  %73 = load ptr, ptr %12, align 8
  store ptr %73, ptr %16, align 8
  %74 = call noundef i32 @_ZN26GrowableArrayWithAllocatorIP16AbstractLockNode13GrowableArrayIS1_EE6appendERKS1_(ptr noundef nonnull align 8 dereferenceable(16) %72, ptr noundef nonnull align 8 dereferenceable(8) %16)
  store i1 true, ptr %5, align 1
  br label %78

75:                                               ; preds = %68, %62, %40
  br label %76

76:                                               ; preds = %75, %37, %32
  br label %77

77:                                               ; preds = %76, %27, %23
  store i1 false, ptr %5, align 1
  br label %78

78:                                               ; preds = %77, %71
  %79 = load i1, ptr %5, align 1
  ret i1 %79
}