; Function Attrs: mustprogress nounwind uwtable
define hidden noundef zeroext i1 @_ZN16AbstractLockNode20find_matching_unlockEPK4NodeP8LockNodeR13GrowableArrayIPS_E(ptr nocapture nonnull readnone align 8 %0, ptr nocapture noundef readonly %1, ptr nocapture noundef readonly %2, ptr noundef nonnull align 8 dereferenceable(24) %3) local_unnamed_addr #2 align 2 {
  %5 = alloca ptr, align 8
  %6 = getelementptr inbounds i8, ptr %1, i64 44
  %7 = load i32, ptr %6, align 4
  %8 = and i32 %7, 15
  %9 = icmp eq i32 %8, 8
  br i1 %9, label %10, label %.thread

10:                                               ; preds = %4
  %11 = getelementptr inbounds i8, ptr %1, i64 52
  %12 = load i32, ptr %11, align 4
  %13 = icmp eq i32 %12, 0
  br i1 %13, label %14, label %.thread

14:                                               ; preds = %10
  %15 = getelementptr inbounds i8, ptr %1, i64 8
  %16 = load ptr, ptr %15, align 8
  %17 = load ptr, ptr %16, align 8
  %.not22 = icmp eq ptr %17, null
  br i1 %.not22, label %.thread, label %18

18:                                               ; preds = %14
  %19 = getelementptr inbounds i8, ptr %17, i64 44
  %20 = load i32, ptr %19, align 4
  %21 = and i32 %20, 511
  %22 = icmp eq i32 %21, 327
  br i1 %22, label %23, label %.thread

23:                                               ; preds = %18
  %24 = load ptr, ptr @_ZN10BarrierSet12_barrier_setE, align 8
  %25 = getelementptr inbounds i8, ptr %24, i64 40
  %26 = load ptr, ptr %25, align 8
  %27 = getelementptr inbounds i8, ptr %2, i64 8
  %28 = load ptr, ptr %27, align 8
  %29 = getelementptr inbounds i8, ptr %28, i64 40
  %30 = load ptr, ptr %29, align 8
  %31 = load ptr, ptr %26, align 8
  %32 = getelementptr inbounds i8, ptr %31, i64 168
  %33 = load ptr, ptr %32, align 8
  %34 = tail call noundef ptr %33(ptr noundef nonnull align 8 dereferenceable(8) %26, ptr noundef %30) #15
  %35 = getelementptr inbounds i8, ptr %17, i64 8
  %36 = load ptr, ptr %35, align 8
  %37 = getelementptr inbounds i8, ptr %36, i64 40
  %38 = load ptr, ptr %37, align 8
  %39 = load ptr, ptr %26, align 8
  %40 = getelementptr inbounds i8, ptr %39, i64 168
  %41 = load ptr, ptr %40, align 8
  %42 = tail call noundef ptr %41(ptr noundef nonnull align 8 dereferenceable(8) %26, ptr noundef %38) #15
  %43 = tail call noundef ptr @_ZNK4Node6uncastEb(ptr noundef nonnull align 8 dereferenceable(52) %34, i1 noundef zeroext false) #15
  %44 = tail call noundef ptr @_ZNK4Node6uncastEb(ptr noundef nonnull align 8 dereferenceable(52) %42, i1 noundef zeroext false) #15
  %45 = icmp eq ptr %43, %44
  br i1 %45, label %46, label %.thread

46:                                               ; preds = %23
  %47 = load ptr, ptr %27, align 8
  %48 = getelementptr inbounds i8, ptr %47, i64 48
  %49 = load ptr, ptr %48, align 8
  %50 = load ptr, ptr %35, align 8
  %51 = getelementptr inbounds i8, ptr %50, i64 48
  %52 = load ptr, ptr %51, align 8
  %53 = getelementptr inbounds i8, ptr %49, i64 52
  %54 = load i32, ptr %53, align 4
  %55 = getelementptr inbounds i8, ptr %52, i64 52
  %56 = load i32, ptr %55, align 4
  %57 = icmp eq i32 %54, %56
  br i1 %57, label %58, label %.thread

58:                                               ; preds = %46
  %59 = getelementptr inbounds i8, ptr %17, i64 128
  %60 = load i32, ptr %59, align 8
  %.not = icmp eq i32 %60, 0
  br i1 %.not, label %61, label %.thread

61:                                               ; preds = %58
  store ptr %17, ptr %5, align 8
  %62 = call noundef i32 @_ZN26GrowableArrayWithAllocatorIP16AbstractLockNode13GrowableArrayIS1_EE6appendERKS1_(ptr noundef nonnull align 8 dereferenceable(16) %3, ptr noundef nonnull align 8 dereferenceable(8) %5)
  br label %.thread

.thread:                                          ; preds = %4, %10, %23, %46, %58, %18, %14, %61
  %.0 = phi i1 [ true, %61 ], [ false, %14 ], [ false, %18 ], [ false, %58 ], [ false, %46 ], [ false, %23 ], [ false, %10 ], [ false, %4 ]
  ret i1 %.0
}